; Function Attrs: nounwind uwtable
define internal { i64, ptr } @f_greater(ptr readnone captures(none) %0, i64 %1, ptr %2, i64 %3, ptr %4, ptr noundef readonly byval(%struct.jv) align 8 captures(none) %5) #0 {
  tail call void @jv_free(i64 %1, ptr %2) #14
  %7 = load i64, ptr %5, align 8
  %8 = getelementptr inbounds nuw i8, ptr %5, i64 8
  %9 = load ptr, ptr %8, align 8
  %10 = tail call i32 @jv_cmp(i64 %3, ptr %4, i64 %7, ptr %9) #14
  %11 = icmp sgt i32 %10, 0
  %12 = zext i1 %11 to i32
  %13 = tail call { i64, ptr } @jv_bool(i32 noundef %12) #14
  ret { i64, ptr } %13
}